; ModuleID = '40/2593.c'
source_filename = "40/2593.c"
target datalayout = "e-m:e-p270:32:32-p271:32:32-p272:64:64-i64:64-f80:128-n8:16:32:64-S128"
target triple = "x86_64-pc-linux-gnu"

@.str = private unnamed_addr constant [20 x i8] c"%lf %lf %lf %lf %lf\00", align 1
@.str.1 = private unnamed_addr constant [14 x i8] c"Invalid input\00", align 1
@.str.2 = private unnamed_addr constant [6 x i8] c"%.4lf\00", align 1

; Function Attrs: noinline nounwind uwtable
define dso_local i32 @main() #0 {
  %1 = alloca i32, align 4
  %2 = alloca double, align 8
  %3 = alloca double, align 8
  %4 = alloca double, align 8
  %5 = alloca double, align 8
  %6 = alloca double, align 8
  %7 = alloca double, align 8
  %8 = alloca double, align 8
  %9 = alloca double, align 8
  %10 = alloca double, align 8
  %11 = alloca double, align 8
  store i32 0, i32* %1, align 4
  store double 0x400921FB4D12D84A, double* %2, align 8
  %12 = call i32 (i8*, ...) @__isoc99_scanf(i8* getelementptr inbounds ([20 x i8], [20 x i8]* @.str, i64 0, i64 0), double* %3, double* %4, double* %5, double* %6, double* %9)
  %13 = load double, double* %3, align 8
  %14 = load double, double* %4, align 8
  %15 = fadd double %13, %14
  %16 = load double, double* %5, align 8
  %17 = fadd double %15, %16
  %18 = load double, double* %6, align 8
  %19 = fadd double %17, %18
  %20 = fdiv double %19, 2.000000e+00
  store double %20, double* %7, align 8
  %21 = load double, double* %9, align 8
  %22 = fdiv double %21, 3.600000e+02
  %23 = fmul double %22, 2.000000e+00
  %24 = load double, double* %2, align 8
  %25 = fmul double %23, %24
  %26 = fdiv double %25, 2.000000e+00
  store double %26, double* %10, align 8
  %27 = load double, double* %7, align 8
  %28 = load double, double* %3, align 8
  %29 = fsub double %27, %28
  %30 = load double, double* %7, align 8
  %31 = load double, double* %4, align 8
  %32 = fsub double %30, %31
  %33 = fmul double %29, %32
  %34 = load double, double* %7, align 8
  %35 = load double, double* %5, align 8
  %36 = fsub double %34, %35
  %37 = fmul double %33, %36
  %38 = load double, double* %7, align 8
  %39 = load double, double* %6, align 8
  %40 = fsub double %38, %39
  %41 = fmul double %37, %40
  store double %41, double* %11, align 8
  %42 = load double, double* %7, align 8
  %43 = load double, double* %3, align 8
  %44 = fsub double %42, %43
  %45 = load double, double* %7, align 8
  %46 = load double, double* %4, align 8
  %47 = fsub double %45, %46
  %48 = fmul double %44, %47
  %49 = load double, double* %7, align 8
  %50 = load double, double* %5, align 8
  %51 = fsub double %49, %50
  %52 = fmul double %48, %51
  %53 = load double, double* %7, align 8
  %54 = load double, double* %6, align 8
  %55 = fsub double %53, %54
  %56 = fmul double %52, %55
  %57 = load double, double* %3, align 8
  %58 = load double, double* %4, align 8
  %59 = fmul double %57, %58
  %60 = load double, double* %5, align 8
  %61 = fmul double %59, %60
  %62 = load double, double* %6, align 8
  %63 = fmul double %61, %62
  %64 = load double, double* %10, align 8
  %65 = call double @cos(double %64) #3
  %66 = fmul double %63, %65
  %67 = load double, double* %10, align 8
  %68 = call double @cos(double %67) #3
  %69 = fmul double %66, %68
  %70 = fsub double %56, %69
  %71 = call double @sqrt(double %70) #3
  store double %71, double* %8, align 8
  %72 = load double, double* %11, align 8
  %73 = fcmp olt double %72, 0.000000e+00
  br i1 %73, label %74, label %76

74:                                               ; preds = %0
  %75 = call i32 (i8*, ...) @printf(i8* getelementptr inbounds ([14 x i8], [14 x i8]* @.str.1, i64 0, i64 0))
  br label %79

76:                                               ; preds = %0
  %77 = load double, double* %8, align 8
  %78 = call i32 (i8*, ...) @printf(i8* getelementptr inbounds ([6 x i8], [6 x i8]* @.str.2, i64 0, i64 0), double %77)
  br label %79

79:                                               ; preds = %76, %74
  ret i32 0
}

declare dso_local i32 @__isoc99_scanf(i8*, ...) #1

; Function Attrs: nounwind
declare dso_local double @sqrt(double) #2

; Function Attrs: nounwind
declare dso_local double @cos(double) #2

declare dso_local i32 @printf(i8*, ...) #1


!llvm.module.flags = !{!0}
!llvm.ident = !{!1}

!0 = !{i32 1, !"wchar_size", i32 4}
!1 = !{!"clang version 10.0.0-4ubuntu1 "}
